target datalayout = "e-m:e-p270:32:32-p271:32:32-p272:64:64-i64:64-i128:128-f80:128-n8:16:32:64-S128"
target triple = "x86_64-pc-linux-gnu"

%struct.timeout_params = type { i32, i8, i8, ptr, i64, i64, i32 }

@alarm_enabled = internal global i32 0, align 4
@num_active_timeouts = internal global i32 0, align 4
@all_timeouts = internal global [23 x %struct.timeout_params] zeroinitializer, align 16
@.str.1 = private unnamed_addr constant [10 x i8] c"timeout.c\00", align 1
@active_timeouts = internal global [23 x ptr] zeroinitializer, align 16
@.str.4 = private unnamed_addr constant [36 x i8] c"timeout index %d out of range 0..%d\00", align 1
@__func__.remove_timeout_index = private unnamed_addr constant [21 x i8] c"remove_timeout_index\00", align 1

; Function Attrs: nounwind uwtable
define internal void @remove_timeout_index(i32 noundef %0) #0 {
  %2 = alloca i32, align 4
  %3 = alloca i32, align 4
  store i32 %0, ptr %2, align 4
  call void @llvm.lifetime.start.p0(i64 4, ptr %3) #6
  %4 = load i32, ptr %2, align 4
  %5 = icmp slt i32 %4, 0
  br i1 %5, label %10, label %6

6:                                                ; preds = %1
  %7 = load i32, ptr %2, align 4
  %8 = load volatile i32, ptr @num_active_timeouts, align 4
  %9 = icmp sge i32 %7, %8
  br i1 %9, label %10, label %24

10:                                               ; preds = %6, %1
  br label %11

11:                                               ; preds = %10
  br i1 true, label %12, label %14

12:                                               ; preds = %11
  %13 = call zeroext i1 @errstart_cold(i32 noundef 22, ptr noundef null) #7
  br i1 %13, label %16, label %21

14:                                               ; preds = %11
  %15 = call zeroext i1 @errstart(i32 noundef 22, ptr noundef null)
  br i1 %15, label %16, label %21

16:                                               ; preds = %14, %12
  %17 = load i32, ptr %2, align 4
  %18 = load volatile i32, ptr @num_active_timeouts, align 4
  %19 = sub i32 %18, 1
  %20 = call i32 (ptr, ...) @errmsg_internal(ptr noundef @.str.4, i32 noundef %17, i32 noundef %19)
  call void @errfinish(ptr noundef @.str.1, i32 noundef 143, ptr noundef @__func__.remove_timeout_index)
  br label %21

21:                                               ; preds = %16, %14, %12
  unreachable

22:                                               ; No predecessors!
  br label %23

23:                                               ; preds = %22
  br label %24

24:                                               ; preds = %23, %6
  %25 = load i32, ptr %2, align 4
  %26 = sext i32 %25 to i64
  %27 = getelementptr inbounds [23 x ptr], ptr @active_timeouts, i64 0, i64 %26
  %28 = load volatile ptr, ptr %27, align 8
  %29 = getelementptr inbounds nuw %struct.timeout_params, ptr %28, i32 0, i32 1
  store volatile i8 0, ptr %29, align 4
  %30 = load i32, ptr %2, align 4
  %31 = add i32 %30, 1
  store i32 %31, ptr %3, align 4
  br label %32

32:                                               ; preds = %45, %24
  %33 = load i32, ptr %3, align 4
  %34 = load volatile i32, ptr @num_active_timeouts, align 4
  %35 = icmp slt i32 %33, %34
  br i1 %35, label %36, label %48

36:                                               ; preds = %32
  %37 = load i32, ptr %3, align 4
  %38 = sext i32 %37 to i64
  %39 = getelementptr inbounds [23 x ptr], ptr @active_timeouts, i64 0, i64 %38
  %40 = load volatile ptr, ptr %39, align 8
  %41 = load i32, ptr %3, align 4
  %42 = sub i32 %41, 1
  %43 = sext i32 %42 to i64
  %44 = getelementptr inbounds [23 x ptr], ptr @active_timeouts, i64 0, i64 %43
  store volatile ptr %40, ptr %44, align 8
  br label %45

45:                                               ; preds = %36
  %46 = load i32, ptr %3, align 4
  %47 = add i32 %46, 1
  store i32 %47, ptr %3, align 4
  br label %32, !llvm.loop !13

48:                                               ; preds = %32
  %49 = load volatile i32, ptr @num_active_timeouts, align 4
  %50 = add i32 %49, -1
  store volatile i32 %50, ptr @num_active_timeouts, align 4
  call void @llvm.lifetime.end.p0(i64 4, ptr %3) #6
  ret void
}

; Function Attrs: nounwind uwtable
define internal i32 @find_active_timeout(i32 noundef %0) #0 {
  %2 = alloca i32, align 4
  %3 = alloca i32, align 4
  %4 = alloca i32, align 4
  %5 = alloca i32, align 4
  store i32 %0, ptr %3, align 4
  call void @llvm.lifetime.start.p0(i64 4, ptr %4) #6
  store i32 0, ptr %4, align 4
  br label %6

6:                                                ; preds = %22, %1
  %7 = load i32, ptr %4, align 4
  %8 = load volatile i32, ptr @num_active_timeouts, align 4
  %9 = icmp slt i32 %7, %8
  br i1 %9, label %10, label %25

10:                                               ; preds = %6
  %11 = load i32, ptr %4, align 4
  %12 = sext i32 %11 to i64
  %13 = getelementptr inbounds [23 x ptr], ptr @active_timeouts, i64 0, i64 %12
  %14 = load volatile ptr, ptr %13, align 8
  %15 = getelementptr inbounds nuw %struct.timeout_params, ptr %14, i32 0, i32 0
  %16 = load i32, ptr %15, align 8
  %17 = load i32, ptr %3, align 4
  %18 = icmp eq i32 %16, %17
  br i1 %18, label %19, label %21

19:                                               ; preds = %10
  %20 = load i32, ptr %4, align 4
  store i32 %20, ptr %2, align 4
  store i32 1, ptr %5, align 4
  br label %26

21:                                               ; preds = %10
  br label %22

22:                                               ; preds = %21
  %23 = load i32, ptr %4, align 4
  %24 = add i32 %23, 1
  store i32 %24, ptr %4, align 4
  br label %6, !llvm.loop !14

25:                                               ; preds = %6
  store i32 -1, ptr %2, align 4
  store i32 1, ptr %5, align 4
  br label %26

26:                                               ; preds = %25, %19
  call void @llvm.lifetime.end.p0(i64 4, ptr %4) #6
  %27 = load i32, ptr %2, align 4
  ret i32 %27
}

; Function Attrs: nounwind uwtable
define dso_local void @disable_timeout(i32 noundef %0, i1 noundef zeroext %1) #0 {
  %3 = alloca i32, align 4
  %4 = alloca i8, align 1
  store i32 %0, ptr %3, align 4
  %5 = zext i1 %1 to i8
  store i8 %5, ptr %4, align 1
  store volatile i32 0, ptr @alarm_enabled, align 4
  %6 = load i32, ptr %3, align 4
  %7 = zext i32 %6 to i64
  %8 = getelementptr inbounds nuw [23 x %struct.timeout_params], ptr @all_timeouts, i64 0, i64 %7
  %9 = getelementptr inbounds nuw %struct.timeout_params, ptr %8, i32 0, i32 1
  %10 = load volatile i8, ptr %9, align 4, !range !8, !noundef !9
  %11 = trunc i8 %10 to i1
  br i1 %11, label %12, label %15

12:                                               ; preds = %2
  %13 = load i32, ptr %3, align 4
  %14 = call i32 @find_active_timeout(i32 noundef %13)
  call void @remove_timeout_index(i32 noundef %14)
  br label %15

15:                                               ; preds = %12, %2
  %16 = load i8, ptr %4, align 1, !range !8, !noundef !9
  %17 = trunc i8 %16 to i1
  br i1 %17, label %23, label %18

18:                                               ; preds = %15
  %19 = load i32, ptr %3, align 4
  %20 = zext i32 %19 to i64
  %21 = getelementptr inbounds nuw [23 x %struct.timeout_params], ptr @all_timeouts, i64 0, i64 %20
  %22 = getelementptr inbounds nuw %struct.timeout_params, ptr %21, i32 0, i32 2
  store volatile i8 0, ptr %22, align 1
  br label %23

23:                                               ; preds = %18, %15
  %24 = load volatile i32, ptr @num_active_timeouts, align 4
  %25 = icmp sgt i32 %24, 0
  br i1 %25, label %26, label %28

26:                                               ; preds = %23
  %27 = call i64 @GetCurrentTimestamp()
  call void @schedule_alarm(i64 noundef %27)
  br label %28

28:                                               ; preds = %26, %23
  ret void
}