; Function Attrs: nounwind uwtable
define dso_local void @disable_timeout(i32 noundef %0, i1 noundef zeroext %1) local_unnamed_addr #0 {
  store volatile i32 0, ptr @alarm_enabled, align 4
  %3 = zext i32 %0 to i64
  %4 = getelementptr inbounds nuw [23 x %struct.timeout_params], ptr @all_timeouts, i64 0, i64 %3
  %5 = getelementptr inbounds nuw i8, ptr %4, i64 4
  %6 = load volatile i8, ptr %5, align 4, !range !9, !noundef !10
  %7 = trunc nuw i8 %6 to i1
  br i1 %7, label %8, label %41

8:                                                ; preds = %2
  %9 = load volatile i32, ptr @num_active_timeouts, align 4
  %10 = icmp sgt i32 %9, 0
  br i1 %10, label %.lr.ph.i, label %find_active_timeout.exit.thread

.lr.ph.i:                                         ; preds = %8, %16
  %indvars.iv.i = phi i64 [ %indvars.iv.next.i, %16 ], [ 0, %8 ]
  %11 = getelementptr inbounds nuw [23 x ptr], ptr @active_timeouts, i64 0, i64 %indvars.iv.i
  %12 = load volatile ptr, ptr %11, align 8
  %13 = load i32, ptr %12, align 8
  %14 = icmp eq i32 %13, %0
  %15 = load volatile i32, ptr @num_active_timeouts, align 4
  br i1 %14, label %find_active_timeout.exit, label %16

16:                                               ; preds = %.lr.ph.i
  %indvars.iv.next.i = add nuw nsw i64 %indvars.iv.i, 1
  %17 = sext i32 %15 to i64
  %18 = icmp slt i64 %indvars.iv.next.i, %17
  br i1 %18, label %.lr.ph.i, label %find_active_timeout.exit.thread, !llvm.loop !11

find_active_timeout.exit:                         ; preds = %.lr.ph.i
  %19 = trunc nuw nsw i64 %indvars.iv.i to i32
  %.not.i = icmp sgt i32 %15, %19
  br i1 %.not.i, label %24, label %find_active_timeout.exit.thread

find_active_timeout.exit.thread:                  ; preds = %16, %8, %find_active_timeout.exit
  %.06.i8 = phi i32 [ %19, %find_active_timeout.exit ], [ -1, %8 ], [ -1, %16 ]
  %20 = tail call zeroext i1 @errstart_cold(i32 noundef 22, ptr noundef null) #11
  tail call void @llvm.assume(i1 %20)
  %21 = load volatile i32, ptr @num_active_timeouts, align 4
  %22 = add i32 %21, -1
  %23 = tail call i32 (ptr, ...) @errmsg_internal(ptr noundef nonnull @.str.4, i32 noundef %.06.i8, i32 noundef %22) #10
  tail call void @errfinish(ptr noundef nonnull @.str.1, i32 noundef 143, ptr noundef nonnull @__func__.remove_timeout_index) #10
  unreachable

24:                                               ; preds = %find_active_timeout.exit
  %25 = and i64 %indvars.iv.i, 4294967295
  %26 = getelementptr inbounds nuw [23 x ptr], ptr @active_timeouts, i64 0, i64 %25
  %27 = load volatile ptr, ptr %26, align 8
  %28 = getelementptr inbounds nuw i8, ptr %27, i64 4
  store volatile i8 0, ptr %28, align 4
  %.010.i = add nuw nsw i32 %19, 1
  %29 = load volatile i32, ptr @num_active_timeouts, align 4
  %30 = icmp slt i32 %.010.i, %29
  br i1 %30, label %.lr.ph.preheader.i, label %remove_timeout_index.exit

.lr.ph.preheader.i:                               ; preds = %24
  %31 = zext nneg i32 %.010.i to i64
  br label %.lr.ph.i4

.lr.ph.i4:                                        ; preds = %.lr.ph.i4, %.lr.ph.preheader.i
  %indvars.iv.i5 = phi i64 [ %31, %.lr.ph.preheader.i ], [ %indvars.iv.next.i6, %.lr.ph.i4 ]
  %.0.in11.i = phi i64 [ %indvars.iv.i, %.lr.ph.preheader.i ], [ %indvars.iv.i5, %.lr.ph.i4 ]
  %32 = getelementptr inbounds nuw [23 x ptr], ptr @active_timeouts, i64 0, i64 %indvars.iv.i5
  %33 = load volatile ptr, ptr %32, align 8
  %sext = shl i64 %.0.in11.i, 32
  %34 = ashr exact i64 %sext, 32
  %35 = getelementptr inbounds [23 x ptr], ptr @active_timeouts, i64 0, i64 %34
  store volatile ptr %33, ptr %35, align 8
  %indvars.iv.next.i6 = add nuw nsw i64 %indvars.iv.i5, 1
  %36 = load volatile i32, ptr @num_active_timeouts, align 4
  %37 = sext i32 %36 to i64
  %38 = icmp slt i64 %indvars.iv.next.i6, %37
  br i1 %38, label %.lr.ph.i4, label %remove_timeout_index.exit, !llvm.loop !6

remove_timeout_index.exit:                        ; preds = %.lr.ph.i4, %24
  %39 = load volatile i32, ptr @num_active_timeouts, align 4
  %40 = add i32 %39, -1
  store volatile i32 %40, ptr @num_active_timeouts, align 4
  br label %41

41:                                               ; preds = %remove_timeout_index.exit, %2
  br i1 %1, label %44, label %42

42:                                               ; preds = %41
  %43 = getelementptr inbounds nuw i8, ptr %4, i64 5
  store volatile i8 0, ptr %43, align 1
  br label %44

44:                                               ; preds = %42, %41
  %45 = load volatile i32, ptr @num_active_timeouts, align 4
  %46 = icmp sgt i32 %45, 0
  br i1 %46, label %47, label %49

47:                                               ; preds = %44
  %48 = tail call i64 @GetCurrentTimestamp() #10
  tail call fastcc void @schedule_alarm(i64 noundef %48)
  br label %49

49:                                               ; preds = %47, %44
  ret void
}